Certificate:
    Data:
        Version: 1 (0x0)
        Serial Number:
            bf:1e:8f:c1:0f:be:1a:52
    Signature Algorithm: ecdsa-with-SHA256
        Issuer: C=US, ST=CA, L=Santa Clara, O=Real Time Innovations, CN=RTI CA/emailAddress=secure@rti.com
        Validity
            Not Before: Jul  1 03:16:24 2016 GMT
            Not After : Jul  1 03:16:24 2017 GMT
        Subject: C=US, ST=CA, O=Real Time Innovations, CN=dtlsexample3ECdsa/emailAddress=youECdsa@rti.com
        Subject Public Key Info:
            Public Key Algorithm: id-ecPublicKey
                Public-Key: (256 bit)
                pub: 
                    04:2f:69:11:69:74:6a:ac:bb:53:c6:58:4c:79:34:
                    fd:15:f9:21:e7:0a:a3:84:ac:e6:81:8d:18:57:32:
                    bd:e1:e3:e0:dc:b7:06:9d:96:66:30:1c:4d:3a:0b:
                    b6:24:8d:5b:56:2a:b1:1d:fb:7f:56:4b:23:64:ba:
                    7c:da:13:b6:f3
                ASN1 OID: prime256v1
                NIST CURVE: P-256
    Signature Algorithm: ecdsa-with-SHA256
         30:45:02:21:00:fd:72:a9:d0:21:bd:22:46:08:e3:c0:19:68:
         47:e3:20:39:b0:89:8c:45:f4:bd:c2:bb:43:68:a5:d8:86:97:
         9e:02:20:1c:41:f7:71:03:b2:0f:f7:fd:37:c8:02:13:e3:52:
         a8:56:a3:1f:66:37:c5:01:1d:00:ab:49:43:99:ef:0a:7f
-----BEGIN CERTIFICATE-----
MIIB6DCCAY4CCQC/Ho/BD74aUjAKBggqhkjOPQQDAjCBgDELMAkGA1UEBhMCVVMx
CzAJBgNVBAgMAkNBMRQwEgYDVQQHDAtTYW50YSBDbGFyYTEeMBwGA1UECgwVUmVh
bCBUaW1lIElubm92YXRpb25zMQ8wDQYDVQQDDAZSVEkgQ0ExHTAbBgkqhkiG9w0B
CQEWDnNlY3VyZUBydGkuY29tMB4XDTE2MDcwMTAzMTYyNFoXDTE3MDcwMTAzMTYy
NFowdzELMAkGA1UEBhMCVVMxCzAJBgNVBAgMAkNBMR4wHAYDVQQKDBVSZWFsIFRp
bWUgSW5ub3ZhdGlvbnMxGjAYBgNVBAMMEWR0bHNleGFtcGxlM0VDZHNhMR8wHQYJ
KoZIhvcNAQkBFhB5b3VFQ2RzYUBydGkuY29tMFkwEwYHKoZIzj0CAQYIKoZIzj0D
AQcDQgAEL2kRaXRqrLtTxlhMeTT9Ffkh5wqjhKzmgY0YVzK94ePg3LcGnZZmMBxN
Ogu2JI1bViqxHft/VksjZLp82hO28zAKBggqhkjOPQQDAgNIADBFAiEA/XKp0CG9
IkYI48AZaEfjIDmwiYxF9L3Cu0NopdiGl54CIBxB93EDsg/3/TfIAhPjUqhWox9m
N8UBHQCrSUOZ7wp/
-----END CERTIFICATE-----
