Certificate:
    Data:
        Version: 1 (0x0)
        Serial Number:
            ab:4d:d5:ff:a5:23:a1:a8
    Signature Algorithm: ecdsa-with-SHA256
        Issuer: C=US, ST=CA, L=Santa Clara, O=Real Time Innovations, CN=RTI CA/emailAddress=secure@rti.com
        Validity
            Not Before: Jul  1 03:14:32 2016 GMT
            Not After : Jul  1 03:14:32 2019 GMT
        Subject: C=US, ST=CA, L=Santa Clara, O=Real Time Innovations, CN=RTI CA/emailAddress=secure@rti.com
        Subject Public Key Info:
            Public Key Algorithm: id-ecPublicKey
                Public-Key: (256 bit)
                pub: 
                    04:7b:3e:8e:68:eb:ea:34:8c:3d:76:6c:62:1c:5e:
                    c3:7c:03:4e:47:06:d6:d4:8e:a6:29:86:43:c5:38:
                    2e:f7:9c:ba:e4:12:73:c4:44:40:8d:17:85:0d:c8:
                    41:93:f7:34:c5:f6:6d:83:60:1a:a2:fd:8a:2c:9a:
                    17:f7:4e:4c:ec
                ASN1 OID: prime256v1
                NIST CURVE: P-256
    Signature Algorithm: ecdsa-with-SHA256
         30:43:02:1f:41:82:09:66:bb:86:0e:2a:5f:6c:38:85:3e:af:
         95:9e:72:da:08:78:56:20:60:d2:82:bb:f1:1f:82:55:b6:02:
         20:08:4d:7e:31:83:46:4c:a8:5b:29:09:85:ba:ce:0b:ef:80:
         af:a7:55:09:76:c4:ef:7b:3e:7f:43:2e:95:f2:b0
-----BEGIN CERTIFICATE-----
MIIB8DCCAZgCCQCrTdX/pSOhqDAKBggqhkjOPQQDAjCBgDELMAkGA1UEBhMCVVMx
CzAJBgNVBAgMAkNBMRQwEgYDVQQHDAtTYW50YSBDbGFyYTEeMBwGA1UECgwVUmVh
bCBUaW1lIElubm92YXRpb25zMQ8wDQYDVQQDDAZSVEkgQ0ExHTAbBgkqhkiG9w0B
CQEWDnNlY3VyZUBydGkuY29tMB4XDTE2MDcwMTAzMTQzMloXDTE5MDcwMTAzMTQz
MlowgYAxCzAJBgNVBAYTAlVTMQswCQYDVQQIDAJDQTEUMBIGA1UEBwwLU2FudGEg
Q2xhcmExHjAcBgNVBAoMFVJlYWwgVGltZSBJbm5vdmF0aW9uczEPMA0GA1UEAwwG
UlRJIENBMR0wGwYJKoZIhvcNAQkBFg5zZWN1cmVAcnRpLmNvbTBZMBMGByqGSM49
AgEGCCqGSM49AwEHA0IABHs+jmjr6jSMPXZsYhxew3wDTkcG1tSOpimGQ8U4Lvec
uuQSc8REQI0XhQ3IQZP3NMX2bYNgGqL9iiyaF/dOTOwwCgYIKoZIzj0EAwIDRgAw
QwIfQYIJZruGDipfbDiFPq+VnnLaCHhWIGDSgrvxH4JVtgIgCE1+MYNGTKhbKQmF
us4L74Cvp1UJdsTvez5/Qy6V8rA=
-----END CERTIFICATE-----
