Certificate:
    Data:
        Version: 1 (0x0)
        Serial Number:
            bf:1e:8f:c1:0f:be:1a:51
    Signature Algorithm: ecdsa-with-SHA256
        Issuer: C=US, ST=CA, L=Santa Clara, O=Real Time Innovations, CN=RTI CA/emailAddress=secure@rti.com
        Validity
            Not Before: Jul  1 03:16:24 2016 GMT
            Not After : Jul  1 03:16:24 2017 GMT
        Subject: C=US, ST=CA, O=Real Time Innovations, CN=dtlsexample2ECdsa/emailAddress=youECdsa@rti.com
        Subject Public Key Info:
            Public Key Algorithm: id-ecPublicKey
                Public-Key: (256 bit)
                pub: 
                    04:ab:cd:b8:30:25:45:1c:60:7a:98:6a:85:98:76:
                    43:9f:54:e4:bf:c0:85:cc:37:9f:d8:9f:27:92:83:
                    62:ac:7e:5e:aa:02:92:58:e8:7b:6c:f4:37:3a:97:
                    10:52:c9:10:44:24:37:ed:c8:27:8b:02:7b:69:41:
                    3a:dc:b7:30:ce
                ASN1 OID: prime256v1
                NIST CURVE: P-256
    Signature Algorithm: ecdsa-with-SHA256
         30:46:02:21:00:b6:e9:05:4a:d4:28:36:20:d6:bf:8c:8a:a4:
         f4:59:8f:c0:f1:16:f8:d9:13:d8:49:04:ca:02:d6:ca:db:be:
         2f:02:21:00:b8:7c:83:cc:ef:fc:ce:cf:fc:e9:ae:75:6b:82:
         77:0d:16:ef:14:db:48:09:76:36:b0:a4:ad:46:8a:57:f1:a6
-----BEGIN CERTIFICATE-----
MIIB6TCCAY4CCQC/Ho/BD74aUTAKBggqhkjOPQQDAjCBgDELMAkGA1UEBhMCVVMx
CzAJBgNVBAgMAkNBMRQwEgYDVQQHDAtTYW50YSBDbGFyYTEeMBwGA1UECgwVUmVh
bCBUaW1lIElubm92YXRpb25zMQ8wDQYDVQQDDAZSVEkgQ0ExHTAbBgkqhkiG9w0B
CQEWDnNlY3VyZUBydGkuY29tMB4XDTE2MDcwMTAzMTYyNFoXDTE3MDcwMTAzMTYy
NFowdzELMAkGA1UEBhMCVVMxCzAJBgNVBAgMAkNBMR4wHAYDVQQKDBVSZWFsIFRp
bWUgSW5ub3ZhdGlvbnMxGjAYBgNVBAMMEWR0bHNleGFtcGxlMkVDZHNhMR8wHQYJ
KoZIhvcNAQkBFhB5b3VFQ2RzYUBydGkuY29tMFkwEwYHKoZIzj0CAQYIKoZIzj0D
AQcDQgAEq824MCVFHGB6mGqFmHZDn1Tkv8CFzDef2J8nkoNirH5eqgKSWOh7bPQ3
OpcQUskQRCQ37cgniwJ7aUE63LcwzjAKBggqhkjOPQQDAgNJADBGAiEAtukFStQo
NiDWv4yKpPRZj8DxFvjZE9hJBMoC1srbvi8CIQC4fIPM7/zOz/zprnVrgncNFu8U
20gJdjawpK1Gilfxpg==
-----END CERTIFICATE-----
