Certificate:
    Data:
        Version: 1 (0x0)
        Serial Number:
            bf:1e:8f:c1:0f:be:1a:50
    Signature Algorithm: ecdsa-with-SHA256
        Issuer: C=US, ST=CA, L=Santa Clara, O=Real Time Innovations, CN=RTI CA/emailAddress=secure@rti.com
        Validity
            Not Before: Jul  1 03:16:23 2016 GMT
            Not After : Jul  1 03:16:23 2017 GMT
        Subject: C=US, ST=CA, O=Real Time Innovations, CN=dtlsexampleECdsa/emailAddress=meECdsa@rti.com
        Subject Public Key Info:
            Public Key Algorithm: id-ecPublicKey
                Public-Key: (256 bit)
                pub: 
                    04:97:59:a2:db:77:07:4f:20:49:99:d5:25:4f:6b:
                    ab:12:07:65:b7:38:1e:2e:d5:2a:e4:53:db:70:98:
                    52:9e:38:91:d5:7f:00:77:02:5e:74:65:48:78:95:
                    bd:01:d8:d4:48:1e:fa:bf:ac:7c:8b:3d:de:9a:2c:
                    af:85:ad:c9:19
                ASN1 OID: prime256v1
                NIST CURVE: P-256
    Signature Algorithm: ecdsa-with-SHA256
         30:45:02:21:00:f5:64:05:dd:9d:a9:cb:da:60:8d:52:09:43:
         83:d2:c2:b8:63:72:5c:54:76:b8:24:1f:1c:35:65:56:26:25:
         e9:02:20:6b:ab:6d:bd:17:41:db:91:1e:b9:32:0b:79:56:aa:
         4f:db:73:53:d4:98:2c:f2:b8:59:95:d3:4b:a0:b1:b8:3a
-----BEGIN CERTIFICATE-----
MIIB5jCCAYwCCQC/Ho/BD74aUDAKBggqhkjOPQQDAjCBgDELMAkGA1UEBhMCVVMx
CzAJBgNVBAgMAkNBMRQwEgYDVQQHDAtTYW50YSBDbGFyYTEeMBwGA1UECgwVUmVh
bCBUaW1lIElubm92YXRpb25zMQ8wDQYDVQQDDAZSVEkgQ0ExHTAbBgkqhkiG9w0B
CQEWDnNlY3VyZUBydGkuY29tMB4XDTE2MDcwMTAzMTYyM1oXDTE3MDcwMTAzMTYy
M1owdTELMAkGA1UEBhMCVVMxCzAJBgNVBAgMAkNBMR4wHAYDVQQKDBVSZWFsIFRp
bWUgSW5ub3ZhdGlvbnMxGTAXBgNVBAMMEGR0bHNleGFtcGxlRUNkc2ExHjAcBgkq
hkiG9w0BCQEWD21lRUNkc2FAcnRpLmNvbTBZMBMGByqGSM49AgEGCCqGSM49AwEH
A0IABJdZott3B08gSZnVJU9rqxIHZbc4Hi7VKuRT23CYUp44kdV/AHcCXnRlSHiV
vQHY1Ege+r+sfIs93posr4WtyRkwCgYIKoZIzj0EAwIDSAAwRQIhAPVkBd2dqcva
YI1SCUOD0sK4Y3JcVHa4JB8cNWVWJiXpAiBrq229F0HbkR65Mgt5VqpP23NT1Jgs
8rhZldNLoLG4Og==
-----END CERTIFICATE-----
